target datalayout = "e-m:e-p270:32:32-p271:32:32-p272:64:64-i64:64-i128:128-f80:128-n8:16:32:64-S128"
target triple = "x86_64-pc-linux-gnu"

%struct.redisObject = type { i32, i32, ptr }
%struct.sdshdr8 = type { i8, i8, i8, [0 x i8] }
%struct.sdshdr16 = type <{ i16, i16, i8, [0 x i8] }>
%struct.sdshdr32 = type <{ i32, i32, i8, [0 x i8] }>
%struct.sdshdr64 = type <{ i64, i64, i8, [0 x i8] }>

; Function Attrs: inlinehint nounwind uwtable
define internal i64 @sdslen(ptr noundef %0) #5 {
  %2 = alloca i64, align 8
  %3 = alloca ptr, align 8
  %4 = alloca i8, align 1
  %5 = alloca i32, align 4
  store ptr %0, ptr %3, align 8, !tbaa !92
  call void @llvm.lifetime.start.p0(i64 1, ptr %4) #8
  %6 = load ptr, ptr %3, align 8, !tbaa !92
  %7 = getelementptr inbounds i8, ptr %6, i64 -1
  %8 = load i8, ptr %7, align 1, !tbaa !93
  store i8 %8, ptr %4, align 1, !tbaa !93
  %9 = load i8, ptr %4, align 1, !tbaa !93
  %10 = zext i8 %9 to i32
  %11 = and i32 %10, 7
  switch i32 %11, label %40 [
    i32 0, label %12
    i32 1, label %17
    i32 2, label %23
    i32 3, label %29
    i32 4, label %35
  ]

12:                                               ; preds = %1
  %13 = load i8, ptr %4, align 1, !tbaa !93
  %14 = zext i8 %13 to i32
  %15 = ashr i32 %14, 3
  %16 = sext i32 %15 to i64
  store i64 %16, ptr %2, align 8
  store i32 1, ptr %5, align 4
  br label %41

17:                                               ; preds = %1
  %18 = load ptr, ptr %3, align 8, !tbaa !92
  %19 = getelementptr inbounds i8, ptr %18, i64 -3
  %20 = getelementptr inbounds nuw %struct.sdshdr8, ptr %19, i32 0, i32 0
  %21 = load i8, ptr %20, align 1, !tbaa !93
  %22 = zext i8 %21 to i64
  store i64 %22, ptr %2, align 8
  store i32 1, ptr %5, align 4
  br label %41

23:                                               ; preds = %1
  %24 = load ptr, ptr %3, align 8, !tbaa !92
  %25 = getelementptr inbounds i8, ptr %24, i64 -5
  %26 = getelementptr inbounds nuw %struct.sdshdr16, ptr %25, i32 0, i32 0
  %27 = load i16, ptr %26, align 1, !tbaa !96
  %28 = zext i16 %27 to i64
  store i64 %28, ptr %2, align 8
  store i32 1, ptr %5, align 4
  br label %41

29:                                               ; preds = %1
  %30 = load ptr, ptr %3, align 8, !tbaa !92
  %31 = getelementptr inbounds i8, ptr %30, i64 -9
  %32 = getelementptr inbounds nuw %struct.sdshdr32, ptr %31, i32 0, i32 0
  %33 = load i32, ptr %32, align 1, !tbaa !69
  %34 = zext i32 %33 to i64
  store i64 %34, ptr %2, align 8
  store i32 1, ptr %5, align 4
  br label %41

35:                                               ; preds = %1
  %36 = load ptr, ptr %3, align 8, !tbaa !92
  %37 = getelementptr inbounds i8, ptr %36, i64 -17
  %38 = getelementptr inbounds nuw %struct.sdshdr64, ptr %37, i32 0, i32 0
  %39 = load i64, ptr %38, align 1, !tbaa !30
  store i64 %39, ptr %2, align 8
  store i32 1, ptr %5, align 4
  br label %41

40:                                               ; preds = %1
  store i64 0, ptr %2, align 8
  store i32 1, ptr %5, align 4
  br label %41

41:                                               ; preds = %40, %35, %29, %23, %17, %12
  call void @llvm.lifetime.end.p0(i64 1, ptr %4) #8
  %42 = load i64, ptr %2, align 8
  ret i64 %42
}

; Function Attrs: nounwind uwtable
define dso_local void @channelList(ptr noundef %0, ptr noundef %1, ptr noundef %2) #0 {
  %4 = alloca ptr, align 8
  %5 = alloca ptr, align 8
  %6 = alloca ptr, align 8
  %7 = alloca i64, align 8
  %8 = alloca ptr, align 8
  %9 = alloca i32, align 4
  %10 = alloca i32, align 4
  %11 = alloca ptr, align 8
  %12 = alloca ptr, align 8
  %13 = alloca ptr, align 8
  %14 = alloca ptr, align 8
  store ptr %0, ptr %4, align 8, !tbaa !5
  store ptr %1, ptr %5, align 8, !tbaa !92
  store ptr %2, ptr %6, align 8, !tbaa !77
  call void @llvm.lifetime.start.p0(i64 8, ptr %7) #8
  store i64 0, ptr %7, align 8, !tbaa !30
  call void @llvm.lifetime.start.p0(i64 8, ptr %8) #8
  call void @llvm.lifetime.start.p0(i64 4, ptr %9) #8
  %15 = load ptr, ptr %6, align 8, !tbaa !77
  %16 = call i32 @kvstoreNumDicts(ptr noundef %15)
  store i32 %16, ptr %9, align 4, !tbaa !69
  %17 = load ptr, ptr %4, align 8, !tbaa !5
  %18 = call ptr @addReplyDeferredLen(ptr noundef %17)
  store ptr %18, ptr %8, align 8, !tbaa !71
  call void @llvm.lifetime.start.p0(i64 4, ptr %10) #8
  store i32 0, ptr %10, align 4, !tbaa !69
  br label %19

19:                                               ; preds = %65, %3
  %20 = load i32, ptr %10, align 4, !tbaa !69
  %21 = load i32, ptr %9, align 4, !tbaa !69
  %22 = icmp ult i32 %20, %21
  br i1 %22, label %24, label %23

23:                                               ; preds = %19
  call void @llvm.lifetime.end.p0(i64 4, ptr %10) #8
  br label %68

24:                                               ; preds = %19
  %25 = load ptr, ptr %6, align 8, !tbaa !77
  %26 = load i32, ptr %10, align 4, !tbaa !69
  %27 = call i64 @kvstoreDictSize(ptr noundef %25, i32 noundef %26)
  %28 = icmp ne i64 %27, 0
  br i1 %28, label %30, label %29

29:                                               ; preds = %24
  br label %65

30:                                               ; preds = %24
  call void @llvm.lifetime.start.p0(i64 8, ptr %11) #8
  %31 = load ptr, ptr %6, align 8, !tbaa !77
  %32 = load i32, ptr %10, align 4, !tbaa !69
  %33 = call ptr @kvstoreGetDictIterator(ptr noundef %31, i32 noundef %32)
  store ptr %33, ptr %11, align 8, !tbaa !79
  call void @llvm.lifetime.start.p0(i64 8, ptr %12) #8
  br label %34

34:                                               ; preds = %62, %30
  %35 = load ptr, ptr %11, align 8, !tbaa !79
  %36 = call ptr @kvstoreDictIteratorNext(ptr noundef %35)
  store ptr %36, ptr %12, align 8, !tbaa !78
  %37 = icmp ne ptr %36, null
  br i1 %37, label %38, label %63

38:                                               ; preds = %34
  call void @llvm.lifetime.start.p0(i64 8, ptr %13) #8
  %39 = load ptr, ptr %12, align 8, !tbaa !78
  %40 = call ptr @dictGetKey(ptr noundef %39)
  store ptr %40, ptr %13, align 8, !tbaa !33
  call void @llvm.lifetime.start.p0(i64 8, ptr %14) #8
  %41 = load ptr, ptr %13, align 8, !tbaa !33
  %42 = getelementptr inbounds nuw %struct.redisObject, ptr %41, i32 0, i32 2
  %43 = load ptr, ptr %42, align 8, !tbaa !74
  store ptr %43, ptr %14, align 8, !tbaa !92
  %44 = load ptr, ptr %5, align 8, !tbaa !92
  %45 = icmp ne ptr %44, null
  br i1 %45, label %46, label %57

46:                                               ; preds = %38
  %47 = load ptr, ptr %5, align 8, !tbaa !92
  %48 = load ptr, ptr %5, align 8, !tbaa !92
  %49 = call i64 @sdslen(ptr noundef %48)
  %50 = trunc i64 %49 to i32
  %51 = load ptr, ptr %14, align 8, !tbaa !92
  %52 = load ptr, ptr %14, align 8, !tbaa !92
  %53 = call i64 @sdslen(ptr noundef %52)
  %54 = trunc i64 %53 to i32
  %55 = call i32 @stringmatchlen(ptr noundef %47, i32 noundef %50, ptr noundef %51, i32 noundef %54, i32 noundef 0)
  %56 = icmp ne i32 %55, 0
  br i1 %56, label %57, label %62

57:                                               ; preds = %46, %38
  %58 = load ptr, ptr %4, align 8, !tbaa !5
  %59 = load ptr, ptr %13, align 8, !tbaa !33
  call void @addReplyBulk(ptr noundef %58, ptr noundef %59)
  %60 = load i64, ptr %7, align 8, !tbaa !30
  %61 = add nsw i64 %60, 1
  store i64 %61, ptr %7, align 8, !tbaa !30
  br label %62

62:                                               ; preds = %57, %46
  call void @llvm.lifetime.end.p0(i64 8, ptr %14) #8
  call void @llvm.lifetime.end.p0(i64 8, ptr %13) #8
  br label %34, !llvm.loop !110

63:                                               ; preds = %34
  %64 = load ptr, ptr %11, align 8, !tbaa !79
  call void @kvstoreReleaseDictIterator(ptr noundef %64)
  call void @llvm.lifetime.end.p0(i64 8, ptr %12) #8
  call void @llvm.lifetime.end.p0(i64 8, ptr %11) #8
  br label %65

65:                                               ; preds = %63, %29
  %66 = load i32, ptr %10, align 4, !tbaa !69
  %67 = add i32 %66, 1
  store i32 %67, ptr %10, align 4, !tbaa !69
  br label %19, !llvm.loop !111

68:                                               ; preds = %23
  %69 = load ptr, ptr %4, align 8, !tbaa !5
  %70 = load ptr, ptr %8, align 8, !tbaa !71
  %71 = load i64, ptr %7, align 8, !tbaa !30
  call void @setDeferredArrayLen(ptr noundef %69, ptr noundef %70, i64 noundef %71)
  call void @llvm.lifetime.end.p0(i64 4, ptr %9) #8
  call void @llvm.lifetime.end.p0(i64 8, ptr %8) #8
  call void @llvm.lifetime.end.p0(i64 8, ptr %7) #8
  ret void
}