; Function Attrs: nounwind uwtable
define dso_local void @channelList(ptr noundef %0, ptr noundef %1, ptr noundef %2) local_unnamed_addr #2 {
  %4 = tail call i32 @kvstoreNumDicts(ptr noundef %2) #9
  %5 = tail call ptr @addReplyDeferredLen(ptr noundef %0) #9
  %.not40 = icmp eq i32 %4, 0
  br i1 %.not40, label %._crit_edge37, label %.lr.ph36

.lr.ph36:                                         ; preds = %3
  %.not27 = icmp eq ptr %1, null
  %6 = getelementptr inbounds i8, ptr %1, i64 -1
  %7 = getelementptr inbounds i8, ptr %1, i64 -17
  %8 = getelementptr inbounds i8, ptr %1, i64 -9
  %9 = getelementptr inbounds i8, ptr %1, i64 -5
  %10 = getelementptr inbounds i8, ptr %1, i64 -3
  br i1 %.not27, label %.lr.ph36.split.us, label %.lr.ph36.split

.lr.ph36.split.us:                                ; preds = %.lr.ph36, %15
  %.034.us = phi i64 [ %.1.us, %15 ], [ 0, %.lr.ph36 ]
  %.02333.us = phi i32 [ %16, %15 ], [ 0, %.lr.ph36 ]
  %11 = tail call i64 @kvstoreDictSize(ptr noundef %2, i32 noundef %.02333.us) #9
  %.not.us = icmp eq i64 %11, 0
  br i1 %.not.us, label %15, label %12

12:                                               ; preds = %.lr.ph36.split.us
  %13 = tail call ptr @kvstoreGetDictIterator(ptr noundef %2, i32 noundef %.02333.us) #9
  %14 = tail call ptr @kvstoreDictIteratorNext(ptr noundef %13) #9
  %.not2631.us = icmp eq ptr %14, null
  br i1 %.not2631.us, label %._crit_edge.split.us.us, label %.lr.ph.us

._crit_edge.split.us.us:                          ; preds = %.lr.ph.us, %12
  %.2.lcssa.us = phi i64 [ %.034.us, %12 ], [ %19, %.lr.ph.us ]
  tail call void @kvstoreReleaseDictIterator(ptr noundef %13) #9
  br label %15

15:                                               ; preds = %._crit_edge.split.us.us, %.lr.ph36.split.us
  %.1.us = phi i64 [ %.2.lcssa.us, %._crit_edge.split.us.us ], [ %.034.us, %.lr.ph36.split.us ]
  %16 = add nuw i32 %.02333.us, 1
  %exitcond42.not = icmp eq i32 %16, %4
  br i1 %exitcond42.not, label %._crit_edge37, label %.lr.ph36.split.us, !llvm.loop !104

.lr.ph.us:                                        ; preds = %12, %.lr.ph.us
  %17 = phi ptr [ %20, %.lr.ph.us ], [ %14, %12 ]
  %.232.us.us = phi i64 [ %19, %.lr.ph.us ], [ %.034.us, %12 ]
  %18 = tail call ptr @dictGetKey(ptr noundef nonnull %17) #9
  tail call void @addReplyBulk(ptr noundef %0, ptr noundef %18) #9
  %19 = add nsw i64 %.232.us.us, 1
  %20 = tail call ptr @kvstoreDictIteratorNext(ptr noundef %13) #9
  %.not26.us.us = icmp eq ptr %20, null
  br i1 %.not26.us.us, label %._crit_edge.split.us.us, label %.lr.ph.us, !llvm.loop !105

._crit_edge37:                                    ; preds = %75, %15, %3
  %.0.lcssa = phi i64 [ 0, %3 ], [ %.1.us, %15 ], [ %.1, %75 ]
  tail call void @setDeferredArrayLen(ptr noundef %0, ptr noundef %5, i64 noundef %.0.lcssa) #9
  ret void

.lr.ph36.split:                                   ; preds = %.lr.ph36, %75
  %.034 = phi i64 [ %.1, %75 ], [ 0, %.lr.ph36 ]
  %.02333 = phi i32 [ %76, %75 ], [ 0, %.lr.ph36 ]
  %21 = tail call i64 @kvstoreDictSize(ptr noundef %2, i32 noundef %.02333) #9
  %.not = icmp eq i64 %21, 0
  br i1 %.not, label %75, label %22

22:                                               ; preds = %.lr.ph36.split
  %23 = tail call ptr @kvstoreGetDictIterator(ptr noundef %2, i32 noundef %.02333) #9
  %24 = tail call ptr @kvstoreDictIteratorNext(ptr noundef %23) #9
  %.not2631 = icmp eq ptr %24, null
  br i1 %.not2631, label %._crit_edge.split, label %.lr.ph

.lr.ph:                                           ; preds = %22, %73
  %25 = phi ptr [ %74, %73 ], [ %24, %22 ]
  %.232 = phi i64 [ %.3, %73 ], [ %.034, %22 ]
  %26 = tail call ptr @dictGetKey(ptr noundef nonnull %25) #9
  %27 = getelementptr inbounds nuw i8, ptr %26, i64 8
  %28 = load ptr, ptr %27, align 8, !tbaa !69
  %29 = load i8, ptr %6, align 1, !tbaa !81
  %30 = zext i8 %29 to i32
  %31 = and i32 %30, 7
  switch i32 %31, label %sdslen.exit [
    i32 0, label %32
    i32 1, label %35
    i32 2, label %38
    i32 3, label %41
    i32 4, label %44
  ]

32:                                               ; preds = %.lr.ph
  %33 = lshr i32 %30, 3
  %34 = zext nneg i32 %33 to i64
  br label %sdslen.exit

35:                                               ; preds = %.lr.ph
  %36 = load i8, ptr %10, align 1, !tbaa !81
  %37 = zext i8 %36 to i64
  br label %sdslen.exit

38:                                               ; preds = %.lr.ph
  %39 = load i16, ptr %9, align 1, !tbaa !82
  %40 = zext i16 %39 to i64
  br label %sdslen.exit

41:                                               ; preds = %.lr.ph
  %42 = load i32, ptr %8, align 1, !tbaa !84
  %43 = zext i32 %42 to i64
  br label %sdslen.exit

44:                                               ; preds = %.lr.ph
  %45 = load i64, ptr %7, align 1, !tbaa !28
  br label %sdslen.exit

sdslen.exit:                                      ; preds = %.lr.ph, %32, %35, %38, %41, %44
  %.0.i = phi i64 [ %45, %44 ], [ %43, %41 ], [ %40, %38 ], [ %37, %35 ], [ %34, %32 ], [ 0, %.lr.ph ]
  %46 = trunc i64 %.0.i to i32
  %47 = getelementptr inbounds i8, ptr %28, i64 -1
  %48 = load i8, ptr %47, align 1, !tbaa !81
  %49 = zext i8 %48 to i32
  %50 = and i32 %49, 7
  switch i32 %50, label %sdslen.exit30 [
    i32 0, label %51
    i32 1, label %54
    i32 2, label %58
    i32 3, label %62
    i32 4, label %66
  ]

51:                                               ; preds = %sdslen.exit
  %52 = lshr i32 %49, 3
  %53 = zext nneg i32 %52 to i64
  br label %sdslen.exit30

54:                                               ; preds = %sdslen.exit
  %55 = getelementptr inbounds i8, ptr %28, i64 -3
  %56 = load i8, ptr %55, align 1, !tbaa !81
  %57 = zext i8 %56 to i64
  br label %sdslen.exit30

58:                                               ; preds = %sdslen.exit
  %59 = getelementptr inbounds i8, ptr %28, i64 -5
  %60 = load i16, ptr %59, align 1, !tbaa !82
  %61 = zext i16 %60 to i64
  br label %sdslen.exit30

62:                                               ; preds = %sdslen.exit
  %63 = getelementptr inbounds i8, ptr %28, i64 -9
  %64 = load i32, ptr %63, align 1, !tbaa !84
  %65 = zext i32 %64 to i64
  br label %sdslen.exit30

66:                                               ; preds = %sdslen.exit
  %67 = getelementptr inbounds i8, ptr %28, i64 -17
  %68 = load i64, ptr %67, align 1, !tbaa !28
  br label %sdslen.exit30

sdslen.exit30:                                    ; preds = %sdslen.exit, %51, %54, %58, %62, %66
  %.0.i29 = phi i64 [ %68, %66 ], [ %65, %62 ], [ %61, %58 ], [ %57, %54 ], [ %53, %51 ], [ 0, %sdslen.exit ]
  %69 = trunc i64 %.0.i29 to i32
  %70 = tail call i32 @stringmatchlen(ptr noundef nonnull %1, i32 noundef %46, ptr noundef nonnull %28, i32 noundef %69, i32 noundef 0) #9
  %.not28 = icmp eq i32 %70, 0
  br i1 %.not28, label %73, label %71

71:                                               ; preds = %sdslen.exit30
  tail call void @addReplyBulk(ptr noundef %0, ptr noundef nonnull %26) #9
  %72 = add nsw i64 %.232, 1
  br label %73

73:                                               ; preds = %71, %sdslen.exit30
  %.3 = phi i64 [ %72, %71 ], [ %.232, %sdslen.exit30 ]
  %74 = tail call ptr @kvstoreDictIteratorNext(ptr noundef %23) #9
  %.not26 = icmp eq ptr %74, null
  br i1 %.not26, label %._crit_edge.split, label %.lr.ph, !llvm.loop !105

._crit_edge.split:                                ; preds = %73, %22
  %.2.lcssa = phi i64 [ %.034, %22 ], [ %.3, %73 ]
  tail call void @kvstoreReleaseDictIterator(ptr noundef %23) #9
  br label %75

75:                                               ; preds = %.lr.ph36.split, %._crit_edge.split
  %.1 = phi i64 [ %.2.lcssa, %._crit_edge.split ], [ %.034, %.lr.ph36.split ]
  %76 = add nuw i32 %.02333, 1
  %exitcond.not = icmp eq i32 %76, %4
  br i1 %exitcond.not, label %._crit_edge37, label %.lr.ph36.split, !llvm.loop !104
}